; Function Attrs: mustprogress uwtable
define dso_local noundef i32 @_ZN7Cleaner11CleanTargetEPKc(ptr noundef nonnull align 8 dereferenceable(156) initializes((136, 140), (152, 156)) %0, ptr noundef %1) local_unnamed_addr #1 align 2 personality ptr @__gxx_personality_v0 {
  %3 = getelementptr inbounds nuw i8, ptr %0, i64 152
  store i32 0, ptr %3, align 8, !tbaa !42
  %4 = getelementptr inbounds nuw i8, ptr %0, i64 136
  store i32 0, ptr %4, align 8, !tbaa !40
  %5 = getelementptr inbounds nuw i8, ptr %0, i64 40
  %6 = getelementptr inbounds nuw i8, ptr %0, i64 56
  %7 = load ptr, ptr %6, align 8, !tbaa !36
  invoke void @_ZNSt8_Rb_treeINSt7__cxx1112basic_stringIcSt11char_traitsIcESaIcEEES5_St9_IdentityIS5_ESt4lessIS5_ESaIS5_EE8_M_eraseEPSt13_Rb_tree_nodeIS5_E(ptr noundef nonnull align 8 dereferenceable(48) %5, ptr noundef %7)
          to label %_ZNSt3setINSt7__cxx1112basic_stringIcSt11char_traitsIcESaIcEEESt4lessIS5_ESaIS5_EE5clearEv.exit.i unwind label %8

8:                                                ; preds = %2
  %9 = landingpad { ptr, i32 }
          catch ptr null
  %10 = extractvalue { ptr, i32 } %9, 0
  tail call void @__clang_call_terminate(ptr %10) #24
  unreachable

_ZNSt3setINSt7__cxx1112basic_stringIcSt11char_traitsIcESaIcEEESt4lessIS5_ESaIS5_EE5clearEv.exit.i: ; preds = %2
  %11 = getelementptr inbounds nuw i8, ptr %0, i64 48
  store ptr null, ptr %6, align 8, !tbaa !36
  %12 = getelementptr inbounds nuw i8, ptr %0, i64 64
  store ptr %11, ptr %12, align 8, !tbaa !37
  %13 = getelementptr inbounds nuw i8, ptr %0, i64 72
  store ptr %11, ptr %13, align 8, !tbaa !38
  %14 = getelementptr inbounds nuw i8, ptr %0, i64 80
  store i64 0, ptr %14, align 8, !tbaa !39
  %15 = getelementptr inbounds nuw i8, ptr %0, i64 88
  %16 = getelementptr inbounds nuw i8, ptr %0, i64 104
  %17 = load ptr, ptr %16, align 8, !tbaa !36
  invoke void @_ZNSt8_Rb_treeIP4NodeS1_St9_IdentityIS1_ESt4lessIS1_ESaIS1_EE8_M_eraseEPSt13_Rb_tree_nodeIS1_E(ptr noundef nonnull align 8 dereferenceable(48) %15, ptr noundef %17)
          to label %_ZN7Cleaner5ResetEv.exit unwind label %18

18:                                               ; preds = %_ZNSt3setINSt7__cxx1112basic_stringIcSt11char_traitsIcESaIcEEESt4lessIS5_ESaIS5_EE5clearEv.exit.i
  %19 = landingpad { ptr, i32 }
          catch ptr null
  %20 = extractvalue { ptr, i32 } %19, 0
  tail call void @__clang_call_terminate(ptr %20) #24
  unreachable

_ZN7Cleaner5ResetEv.exit:                         ; preds = %_ZNSt3setINSt7__cxx1112basic_stringIcSt11char_traitsIcESaIcEEESt4lessIS5_ESaIS5_EE5clearEv.exit.i
  %21 = getelementptr inbounds nuw i8, ptr %0, i64 96
  store ptr null, ptr %16, align 8, !tbaa !36
  %22 = getelementptr inbounds nuw i8, ptr %0, i64 112
  store ptr %21, ptr %22, align 8, !tbaa !37
  %23 = getelementptr inbounds nuw i8, ptr %0, i64 120
  store ptr %21, ptr %23, align 8, !tbaa !38
  %24 = getelementptr inbounds nuw i8, ptr %0, i64 128
  store i64 0, ptr %24, align 8, !tbaa !39
  %25 = load ptr, ptr %0, align 8, !tbaa !4
  %26 = tail call i64 @strlen(ptr noundef nonnull dereferenceable(1) %1) #26
  %27 = tail call noundef ptr @_ZNK5State10LookupNodeE11StringPiece(ptr noundef nonnull align 8 dereferenceable(256) %25, ptr nonnull %1, i64 %26)
  %.not = icmp eq ptr %27, null
  br i1 %.not, label %30, label %28

28:                                               ; preds = %_ZN7Cleaner5ResetEv.exit
  %29 = tail call noundef i32 @_ZN7Cleaner11CleanTargetEP4Node(ptr noundef nonnull align 8 dereferenceable(156) %0, ptr noundef nonnull %27)
  %.pre = load i32, ptr %3, align 8, !tbaa !42
  br label %31

30:                                               ; preds = %_ZN7Cleaner5ResetEv.exit
  tail call void (ptr, ...) @_Z5ErrorPKcz(ptr noundef nonnull @.str.7, ptr noundef nonnull %1)
  store i32 1, ptr %3, align 8, !tbaa !42
  br label %31

31:                                               ; preds = %30, %28
  %32 = phi i32 [ 1, %30 ], [ %.pre, %28 ]
  ret i32 %32
}